; ModuleID = '5/771.c'
source_filename = "5/771.c"
target datalayout = "e-m:e-p270:32:32-p271:32:32-p272:64:64-i64:64-f80:128-n8:16:32:64-S128"
target triple = "x86_64-pc-linux-gnu"

@.str = private unnamed_addr constant [4 x i8] c"%lf\00", align 1
@.str.1 = private unnamed_addr constant [6 x i8] c"%s %s\00", align 1
@.str.2 = private unnamed_addr constant [7 x i8] c"error\0A\00", align 1
@.str.3 = private unnamed_addr constant [4 x i8] c"no\0A\00", align 1
@.str.4 = private unnamed_addr constant [5 x i8] c"yes\0A\00", align 1

; Function Attrs: noinline nounwind uwtable
define dso_local i32 @main() #0 {
  %1 = alloca i32, align 4
  %2 = alloca double, align 8
  %3 = alloca double, align 8
  %4 = alloca [1000 x i8], align 16
  %5 = alloca [1000 x i8], align 16
  %6 = alloca i32, align 4
  %7 = alloca i32, align 4
  %8 = alloca i32, align 4
  %9 = alloca i32, align 4
  %10 = alloca i32, align 4
  store i32 0, i32* %1, align 4
  %11 = call i32 (i8*, ...) @__isoc99_scanf(i8* getelementptr inbounds ([4 x i8], [4 x i8]* @.str, i64 0, i64 0), double* %2)
  %12 = getelementptr inbounds [1000 x i8], [1000 x i8]* %4, i64 0, i64 0
  %13 = getelementptr inbounds [1000 x i8], [1000 x i8]* %5, i64 0, i64 0
  %14 = call i32 (i8*, ...) @__isoc99_scanf(i8* getelementptr inbounds ([6 x i8], [6 x i8]* @.str.1, i64 0, i64 0), i8* %12, i8* %13)
  store i32 0, i32* %8, align 4
  store i32 0, i32* %9, align 4
  br label %15

15:                                               ; preds = %52, %0
  %16 = load i32, i32* %9, align 4
  %17 = sext i32 %16 to i64
  %18 = getelementptr inbounds [1000 x i8], [1000 x i8]* %4, i64 0, i64 %17
  %19 = load i8, i8* %18, align 1
  %20 = sext i8 %19 to i32
  %21 = icmp ne i32 %20, 0
  br i1 %21, label %22, label %55

22:                                               ; preds = %15
  %23 = load i32, i32* %9, align 4
  %24 = sext i32 %23 to i64
  %25 = getelementptr inbounds [1000 x i8], [1000 x i8]* %4, i64 0, i64 %24
  %26 = load i8, i8* %25, align 1
  %27 = sext i8 %26 to i32
  %28 = icmp ne i32 %27, 65
  br i1 %28, label %29, label %51

29:                                               ; preds = %22
  %30 = load i32, i32* %9, align 4
  %31 = sext i32 %30 to i64
  %32 = getelementptr inbounds [1000 x i8], [1000 x i8]* %4, i64 0, i64 %31
  %33 = load i8, i8* %32, align 1
  %34 = sext i8 %33 to i32
  %35 = icmp ne i32 %34, 67
  br i1 %35, label %36, label %51

36:                                               ; preds = %29
  %37 = load i32, i32* %9, align 4
  %38 = sext i32 %37 to i64
  %39 = getelementptr inbounds [1000 x i8], [1000 x i8]* %4, i64 0, i64 %38
  %40 = load i8, i8* %39, align 1
  %41 = sext i8 %40 to i32
  %42 = icmp ne i32 %41, 71
  br i1 %42, label %43, label %51

43:                                               ; preds = %36
  %44 = load i32, i32* %9, align 4
  %45 = sext i32 %44 to i64
  %46 = getelementptr inbounds [1000 x i8], [1000 x i8]* %4, i64 0, i64 %45
  %47 = load i8, i8* %46, align 1
  %48 = sext i8 %47 to i32
  %49 = icmp ne i32 %48, 84
  br i1 %49, label %50, label %51

50:                                               ; preds = %43
  store i32 -1, i32* %8, align 4
  br label %55

51:                                               ; preds = %43, %36, %29, %22
  br label %52

52:                                               ; preds = %51
  %53 = load i32, i32* %9, align 4
  %54 = add nsw i32 %53, 1
  store i32 %54, i32* %9, align 4
  br label %15

55:                                               ; preds = %50, %15
  store i32 0, i32* %9, align 4
  br label %56

56:                                               ; preds = %93, %55
  %57 = load i32, i32* %9, align 4
  %58 = sext i32 %57 to i64
  %59 = getelementptr inbounds [1000 x i8], [1000 x i8]* %5, i64 0, i64 %58
  %60 = load i8, i8* %59, align 1
  %61 = sext i8 %60 to i32
  %62 = icmp ne i32 %61, 0
  br i1 %62, label %63, label %96

63:                                               ; preds = %56
  %64 = load i32, i32* %9, align 4
  %65 = sext i32 %64 to i64
  %66 = getelementptr inbounds [1000 x i8], [1000 x i8]* %5, i64 0, i64 %65
  %67 = load i8, i8* %66, align 1
  %68 = sext i8 %67 to i32
  %69 = icmp ne i32 %68, 65
  br i1 %69, label %70, label %92

70:                                               ; preds = %63
  %71 = load i32, i32* %9, align 4
  %72 = sext i32 %71 to i64
  %73 = getelementptr inbounds [1000 x i8], [1000 x i8]* %5, i64 0, i64 %72
  %74 = load i8, i8* %73, align 1
  %75 = sext i8 %74 to i32
  %76 = icmp ne i32 %75, 67
  br i1 %76, label %77, label %92

77:                                               ; preds = %70
  %78 = load i32, i32* %9, align 4
  %79 = sext i32 %78 to i64
  %80 = getelementptr inbounds [1000 x i8], [1000 x i8]* %5, i64 0, i64 %79
  %81 = load i8, i8* %80, align 1
  %82 = sext i8 %81 to i32
  %83 = icmp ne i32 %82, 71
  br i1 %83, label %84, label %92

84:                                               ; preds = %77
  %85 = load i32, i32* %9, align 4
  %86 = sext i32 %85 to i64
  %87 = getelementptr inbounds [1000 x i8], [1000 x i8]* %5, i64 0, i64 %86
  %88 = load i8, i8* %87, align 1
  %89 = sext i8 %88 to i32
  %90 = icmp ne i32 %89, 84
  br i1 %90, label %91, label %92

91:                                               ; preds = %84
  store i32 -1, i32* %8, align 4
  br label %96

92:                                               ; preds = %84, %77, %70, %63
  br label %93

93:                                               ; preds = %92
  %94 = load i32, i32* %9, align 4
  %95 = add nsw i32 %94, 1
  store i32 %95, i32* %9, align 4
  br label %56

96:                                               ; preds = %91, %56
  %97 = getelementptr inbounds [1000 x i8], [1000 x i8]* %4, i64 0, i64 0
  %98 = call i64 @strlen(i8* %97) #3
  %99 = trunc i64 %98 to i32
  store i32 %99, i32* %6, align 4
  %100 = getelementptr inbounds [1000 x i8], [1000 x i8]* %5, i64 0, i64 0
  %101 = call i64 @strlen(i8* %100) #3
  %102 = trunc i64 %101 to i32
  store i32 %102, i32* %7, align 4
  %103 = load i32, i32* %6, align 4
  %104 = load i32, i32* %7, align 4
  %105 = icmp ne i32 %103, %104
  br i1 %105, label %106, label %107

106:                                              ; preds = %96
  store i32 -1, i32* %8, align 4
  br label %107

107:                                              ; preds = %106, %96
  store i32 0, i32* %10, align 4
  %108 = load i32, i32* %8, align 4
  %109 = icmp eq i32 %108, 0
  br i1 %109, label %110, label %150

110:                                              ; preds = %107
  store i32 0, i32* %9, align 4
  br label %111

111:                                              ; preds = %134, %110
  %112 = load i32, i32* %9, align 4
  %113 = sext i32 %112 to i64
  %114 = getelementptr inbounds [1000 x i8], [1000 x i8]* %4, i64 0, i64 %113
  %115 = load i8, i8* %114, align 1
  %116 = sext i8 %115 to i32
  %117 = icmp ne i32 %116, 0
  br i1 %117, label %118, label %137

118:                                              ; preds = %111
  %119 = load i32, i32* %9, align 4
  %120 = sext i32 %119 to i64
  %121 = getelementptr inbounds [1000 x i8], [1000 x i8]* %4, i64 0, i64 %120
  %122 = load i8, i8* %121, align 1
  %123 = sext i8 %122 to i32
  %124 = load i32, i32* %9, align 4
  %125 = sext i32 %124 to i64
  %126 = getelementptr inbounds [1000 x i8], [1000 x i8]* %5, i64 0, i64 %125
  %127 = load i8, i8* %126, align 1
  %128 = sext i8 %127 to i32
  %129 = icmp eq i32 %123, %128
  br i1 %129, label %130, label %133

130:                                              ; preds = %118
  %131 = load i32, i32* %10, align 4
  %132 = add nsw i32 %131, 1
  store i32 %132, i32* %10, align 4
  br label %133

133:                                              ; preds = %130, %118
  br label %134

134:                                              ; preds = %133
  %135 = load i32, i32* %9, align 4
  %136 = add nsw i32 %135, 1
  store i32 %136, i32* %9, align 4
  br label %111

137:                                              ; preds = %111
  %138 = load i32, i32* %10, align 4
  %139 = sitofp i32 %138 to double
  %140 = fmul double 1.000000e+00, %139
  %141 = load i32, i32* %6, align 4
  %142 = sitofp i32 %141 to double
  %143 = fdiv double %140, %142
  store double %143, double* %3, align 8
  %144 = load double, double* %3, align 8
  %145 = load double, double* %2, align 8
  %146 = fcmp ogt double %144, %145
  br i1 %146, label %147, label %148

147:                                              ; preds = %137
  store i32 1, i32* %8, align 4
  br label %149

148:                                              ; preds = %137
  store i32 0, i32* %8, align 4
  br label %149

149:                                              ; preds = %148, %147
  br label %150

150:                                              ; preds = %149, %107
  %151 = load i32, i32* %8, align 4
  %152 = icmp eq i32 %151, -1
  br i1 %152, label %153, label %155

153:                                              ; preds = %150
  %154 = call i32 (i8*, ...) @printf(i8* getelementptr inbounds ([7 x i8], [7 x i8]* @.str.2, i64 0, i64 0))
  br label %155

155:                                              ; preds = %153, %150
  %156 = load i32, i32* %8, align 4
  %157 = icmp eq i32 %156, 0
  br i1 %157, label %158, label %160

158:                                              ; preds = %155
  %159 = call i32 (i8*, ...) @printf(i8* getelementptr inbounds ([4 x i8], [4 x i8]* @.str.3, i64 0, i64 0))
  br label %160

160:                                              ; preds = %158, %155
  %161 = load i32, i32* %8, align 4
  %162 = icmp eq i32 %161, 1
  br i1 %162, label %163, label %165

163:                                              ; preds = %160
  %164 = call i32 (i8*, ...) @printf(i8* getelementptr inbounds ([5 x i8], [5 x i8]* @.str.4, i64 0, i64 0))
  br label %165

165:                                              ; preds = %163, %160
  ret i32 0
}

declare dso_local i32 @__isoc99_scanf(i8*, ...) #1

; Function Attrs: nounwind readonly
declare dso_local i64 @strlen(i8*) #2

declare dso_local i32 @printf(i8*, ...) #1


!llvm.module.flags = !{!0}
!llvm.ident = !{!1}

!0 = !{i32 1, !"wchar_size", i32 4}
!1 = !{!"clang version 10.0.0-4ubuntu1 "}
